target datalayout = "e-m:e-p270:32:32-p271:32:32-p272:64:64-i64:64-i128:128-f80:128-n8:16:32:64-S128"
target triple = "x86_64-pc-linux-gnu"

%struct.H5G_loc_t = type { ptr, ptr }
%struct.H5O_loc_t = type { ptr, i64, i8 }
%struct.H5G_name_t = type { ptr, ptr, i32 }
%struct.H5L_trav_gvbi_t = type { i32, i32, i64, i64, ptr }

@.str = private unnamed_addr constant [100 x i8] c"generated/home/dtcxzyw/WorkSpace/Projects/compilers/llvm-opt-benchmark/bench/hdf5/hdf5/src/H5Lint.c\00", align 1
@H5E_LINK_g = external global i64, align 8
@H5E_NOTFOUND_g = external global i64, align 8
@.str.51 = private unnamed_addr constant [20 x i8] c"group doesn't exist\00", align 1
@.str.52 = private unnamed_addr constant [15 x i8] c"link not found\00", align 1
@__func__.H5L__delete_by_idx_cb = private unnamed_addr constant [22 x i8] c"H5L__delete_by_idx_cb\00", align 1

; Function Attrs: nounwind uwtable
define internal i32 @H5L__delete_by_idx_cb(ptr noundef %0, ptr noundef %1, ptr noundef %2, ptr noundef %3, ptr noundef %4, ptr noundef %5) #0 {
  %7 = alloca ptr, align 8
  %8 = alloca ptr, align 8
  %9 = alloca ptr, align 8
  %10 = alloca ptr, align 8
  %11 = alloca ptr, align 8
  %12 = alloca ptr, align 8
  %13 = alloca ptr, align 8
  %14 = alloca i32, align 4
  %15 = alloca i64, align 8
  %16 = alloca i8, align 1
  store ptr %0, ptr %7, align 8
  store ptr %1, ptr %8, align 8
  store ptr %2, ptr %9, align 8
  store ptr %3, ptr %10, align 8
  store ptr %4, ptr %11, align 8
  store ptr %5, ptr %12, align 8
  %17 = load ptr, ptr %11, align 8
  store ptr %17, ptr %13, align 8
  store i32 0, ptr %14, align 4
  store i64 -1, ptr %15, align 8
  store i8 0, ptr %16, align 1
  %18 = load ptr, ptr %10, align 8
  %19 = icmp ne ptr %18, null
  br i1 %19, label %20, label %26

20:                                               ; preds = %6
  %21 = load ptr, ptr %10, align 8
  %22 = getelementptr inbounds %struct.H5G_loc_t, ptr %21, i32 0, i32 0
  %23 = load ptr, ptr %22, align 8
  %24 = getelementptr inbounds %struct.H5O_loc_t, ptr %23, i32 0, i32 1
  %25 = load i64, ptr %24, align 8
  br label %27

26:                                               ; preds = %6
  br label %27

27:                                               ; preds = %26, %20
  %28 = phi i64 [ %25, %20 ], [ -1, %26 ]
  call void @H5AC_tag(i64 noundef %28, ptr noundef %15)
  %29 = load ptr, ptr %10, align 8
  %30 = icmp eq ptr %29, null
  br i1 %30, label %31, label %46

31:                                               ; preds = %27
  br label %32

32:                                               ; preds = %31
  br label %33

33:                                               ; preds = %32
  br label %34

34:                                               ; preds = %33
  %35 = load i64, ptr @H5E_LINK_g, align 8
  %36 = load i64, ptr @H5E_NOTFOUND_g, align 8
  %37 = call i32 (ptr, ptr, i32, i64, i64, ptr, ...) @H5E_printf_stack(ptr noundef @.str, ptr noundef @__func__.H5L__delete_by_idx_cb, i32 noundef 1225, i64 noundef %35, i64 noundef %36, ptr noundef @.str.51)
  br label %38

38:                                               ; preds = %34
  store i8 1, ptr %16, align 1
  %39 = load i8, ptr %16, align 1
  %40 = trunc i8 %39 to i1
  %41 = zext i1 %40 to i8
  store i8 %41, ptr %16, align 1
  br label %42

42:                                               ; preds = %38
  br label %43

43:                                               ; preds = %42
  store i32 -1, ptr %14, align 4
  br label %82

44:                                               ; No predecessors!
  br label %45

45:                                               ; preds = %44
  br label %46

46:                                               ; preds = %45, %27
  %47 = load ptr, ptr %10, align 8
  %48 = getelementptr inbounds %struct.H5G_loc_t, ptr %47, i32 0, i32 0
  %49 = load ptr, ptr %48, align 8
  %50 = load ptr, ptr %10, align 8
  %51 = getelementptr inbounds %struct.H5G_loc_t, ptr %50, i32 0, i32 1
  %52 = load ptr, ptr %51, align 8
  %53 = getelementptr inbounds %struct.H5G_name_t, ptr %52, i32 0, i32 0
  %54 = load ptr, ptr %53, align 8
  %55 = load ptr, ptr %13, align 8
  %56 = getelementptr inbounds %struct.H5L_trav_gvbi_t, ptr %55, i32 0, i32 0
  %57 = load i32, ptr %56, align 8
  %58 = load ptr, ptr %13, align 8
  %59 = getelementptr inbounds %struct.H5L_trav_gvbi_t, ptr %58, i32 0, i32 1
  %60 = load i32, ptr %59, align 4
  %61 = load ptr, ptr %13, align 8
  %62 = getelementptr inbounds %struct.H5L_trav_gvbi_t, ptr %61, i32 0, i32 2
  %63 = load i64, ptr %62, align 8
  %64 = call i32 @H5G_obj_remove_by_idx(ptr noundef %49, ptr noundef %54, i32 noundef %57, i32 noundef %60, i64 noundef %63)
  %65 = icmp slt i32 %64, 0
  br i1 %65, label %66, label %81

66:                                               ; preds = %46
  br label %67

67:                                               ; preds = %66
  br label %68

68:                                               ; preds = %67
  br label %69

69:                                               ; preds = %68
  %70 = load i64, ptr @H5E_LINK_g, align 8
  %71 = load i64, ptr @H5E_NOTFOUND_g, align 8
  %72 = call i32 (ptr, ptr, i32, i64, i64, ptr, ...) @H5E_printf_stack(ptr noundef @.str, ptr noundef @__func__.H5L__delete_by_idx_cb, i32 noundef 1230, i64 noundef %70, i64 noundef %71, ptr noundef @.str.52)
  br label %73

73:                                               ; preds = %69
  store i8 1, ptr %16, align 1
  %74 = load i8, ptr %16, align 1
  %75 = trunc i8 %74 to i1
  %76 = zext i1 %75 to i8
  store i8 %76, ptr %16, align 1
  br label %77

77:                                               ; preds = %73
  br label %78

78:                                               ; preds = %77
  store i32 -1, ptr %14, align 4
  br label %82

79:                                               ; No predecessors!
  br label %80

80:                                               ; preds = %79
  br label %81

81:                                               ; preds = %80, %46
  br label %82

82:                                               ; preds = %81, %78, %43
  %83 = load ptr, ptr %12, align 8
  store i32 0, ptr %83, align 4
  %84 = load i64, ptr %15, align 8
  call void @H5AC_tag(i64 noundef %84, ptr noundef null)
  %85 = load i32, ptr %14, align 4
  ret i32 %85
}