; Function Attrs: nounwind uwtable
define internal range(i32 -1, 1) i32 @H5L__delete_by_idx_cb(ptr nocapture readnone %0, ptr nocapture readnone %1, ptr nocapture readnone %2, ptr noundef readonly %3, ptr nocapture noundef readonly %4, ptr nocapture noundef writeonly %5) #0 {
  %7 = alloca i64, align 8
  store i64 -1, ptr %7, align 8
  %.not = icmp eq ptr %3, null
  br i1 %.not, label %8, label %12

8:                                                ; preds = %6
  call void @H5AC_tag(i64 noundef -1, ptr noundef nonnull %7) #10
  %9 = load i64, ptr @H5E_LINK_g, align 8
  %10 = load i64, ptr @H5E_NOTFOUND_g, align 8
  %11 = call i32 (ptr, ptr, i32, i64, i64, ptr, ...) @H5E_printf_stack(ptr noundef nonnull @.str, ptr noundef nonnull @__func__.H5L__delete_by_idx_cb, i32 noundef 1225, i64 noundef %9, i64 noundef %10, ptr noundef nonnull @.str.51) #10
  br label %31

12:                                               ; preds = %6
  %13 = load ptr, ptr %3, align 8
  %14 = getelementptr inbounds i8, ptr %13, i64 8
  %15 = load i64, ptr %14, align 8
  call void @H5AC_tag(i64 noundef %15, ptr noundef nonnull %7) #10
  %16 = load ptr, ptr %3, align 8
  %17 = getelementptr inbounds i8, ptr %3, i64 8
  %18 = load ptr, ptr %17, align 8
  %19 = load ptr, ptr %18, align 8
  %20 = load i32, ptr %4, align 8
  %21 = getelementptr inbounds i8, ptr %4, i64 4
  %22 = load i32, ptr %21, align 4
  %23 = getelementptr inbounds i8, ptr %4, i64 8
  %24 = load i64, ptr %23, align 8
  %25 = call i32 @H5G_obj_remove_by_idx(ptr noundef %16, ptr noundef %19, i32 noundef %20, i32 noundef %22, i64 noundef %24) #10
  %26 = icmp slt i32 %25, 0
  br i1 %26, label %27, label %31

27:                                               ; preds = %12
  %28 = load i64, ptr @H5E_LINK_g, align 8
  %29 = load i64, ptr @H5E_NOTFOUND_g, align 8
  %30 = call i32 (ptr, ptr, i32, i64, i64, ptr, ...) @H5E_printf_stack(ptr noundef nonnull @.str, ptr noundef nonnull @__func__.H5L__delete_by_idx_cb, i32 noundef 1230, i64 noundef %28, i64 noundef %29, ptr noundef nonnull @.str.52) #10
  br label %31

31:                                               ; preds = %12, %27, %8
  %.0 = phi i32 [ -1, %8 ], [ -1, %27 ], [ 0, %12 ]
  store i32 0, ptr %5, align 4
  %32 = load i64, ptr %7, align 8
  call void @H5AC_tag(i64 noundef %32, ptr noundef null) #10
  ret i32 %.0
}